target datalayout = "e-m:e-p270:32:32-p271:32:32-p272:64:64-i64:64-i128:128-f80:128-n8:16:32:64-S128"
target triple = "x86_64-unknown-linux-gnu"

%"class.std::basic_ostream" = type { ptr, %"class.std::basic_ios" }
%"class.std::basic_ios" = type { %"class.std::ios_base", ptr, i8, i8, ptr, ptr, ptr, ptr }
%"class.std::ios_base" = type { ptr, i64, i64, i32, i32, i32, ptr, %"struct.std::ios_base::_Words", [8 x %"struct.std::ios_base::_Words"], i32, ptr, %"class.std::locale" }
%"struct.std::ios_base::_Words" = type { ptr, i64 }
%"class.std::locale" = type { ptr }
%"class.Assimp::LogStream" = type { ptr }
%"class.Assimp::StdOStreamLogStream" = type { %"class.Assimp::LogStream", ptr }

@_ZSt4cerr = external global %"class.std::basic_ostream", align 8
@_ZSt4cout = external global %"class.std::basic_ostream", align 8
@_ZTVN6Assimp9LogStreamE = linkonce_odr unnamed_addr constant { [5 x ptr] } { [5 x ptr] [ptr null, ptr @_ZTIN6Assimp9LogStreamE, ptr @_ZN6Assimp9LogStreamD2Ev, ptr @_ZN6Assimp9LogStreamD0Ev, ptr @__cxa_pure_virtual] }, comdat, align 8

; Function Attrs: mustprogress nounwind uwtable
define linkonce_odr void @_ZN6Assimp9LogStreamC2Ev(ptr noundef nonnull align 8 dereferenceable(8) %this) unnamed_addr #0 comdat align 2 {
entry:
  %this.addr = alloca ptr, align 8
  store ptr %this, ptr %this.addr, align 8
  %this1 = load ptr, ptr %this.addr, align 8
  store ptr getelementptr inbounds ({ [5 x ptr] }, ptr @_ZTVN6Assimp9LogStreamE, i32 0, i32 0, i32 2), ptr %this1, align 8
  ret void
}

; Function Attrs: mustprogress nounwind uwtable
define linkonce_odr hidden void @_ZN6Assimp19StdOStreamLogStreamC2ERSo(ptr noundef nonnull align 8 dereferenceable(16) %this, ptr noundef nonnull align 8 dereferenceable(8) %_ostream) unnamed_addr #0 comdat align 2 {
entry:
  %this.addr = alloca ptr, align 8
  %_ostream.addr = alloca ptr, align 8
  store ptr %this, ptr %this.addr, align 8
  store ptr %_ostream, ptr %_ostream.addr, align 8
  %this1 = load ptr, ptr %this.addr, align 8
  call void @_ZN6Assimp9LogStreamC2Ev(ptr noundef nonnull align 8 dereferenceable(8) %this1) #5
  store ptr getelementptr inbounds ({ [5 x ptr] }, ptr @_ZTVN6Assimp19StdOStreamLogStreamE, i32 0, i32 0, i32 2), ptr %this1, align 8
  %mOstream = getelementptr inbounds %"class.Assimp::StdOStreamLogStream", ptr %this1, i32 0, i32 1
  %0 = load ptr, ptr %_ostream.addr, align 8
  store ptr %0, ptr %mOstream, align 8
  ret void
}

; Function Attrs: mustprogress uwtable
define noundef ptr @_ZN6Assimp9LogStream19createDefaultStreamE18aiDefaultLogStreamPKcPNS_8IOSystemE(i32 noundef %streams, ptr noundef %name, ptr noundef %io) #6 align 2 personality ptr @__gxx_personality_v0 {
entry:
  %retval = alloca ptr, align 8
  %streams.addr = alloca i32, align 4
  %name.addr = alloca ptr, align 8
  %io.addr = alloca ptr, align 8
  %exn.slot = alloca ptr, align 8
  %ehselector.slot = alloca i32, align 4
  %saved-rvalue = alloca ptr, align 8
  %cleanup.cond = alloca i1, align 1
  store i32 %streams, ptr %streams.addr, align 4
  store ptr %name, ptr %name.addr, align 8
  store ptr %io, ptr %io.addr, align 8
  %0 = load i32, ptr %streams.addr, align 4
  switch i32 %0, label %sw.default [
    i32 8, label %sw.bb
    i32 4, label %sw.bb1
    i32 2, label %sw.bb2
    i32 1, label %sw.bb6
  ]

sw.bb:                                            ; preds = %entry
  store ptr null, ptr %retval, align 8
  br label %return

sw.bb1:                                           ; preds = %entry
  %call = call noundef ptr @_ZN6Assimp6Intern22AllocateFromAssimpHeapnwEm(i64 noundef 16)
  invoke void @_ZN6Assimp19StdOStreamLogStreamC2ERSo(ptr noundef nonnull align 8 dereferenceable(16) %call, ptr noundef nonnull align 8 dereferenceable(8) @_ZSt4cerr)
          to label %invoke.cont unwind label %lpad

invoke.cont:                                      ; preds = %sw.bb1
  store ptr %call, ptr %retval, align 8
  br label %return

lpad:                                             ; preds = %sw.bb1
  %1 = landingpad { ptr, i32 }
          cleanup
  %2 = extractvalue { ptr, i32 } %1, 0
  store ptr %2, ptr %exn.slot, align 8
  %3 = extractvalue { ptr, i32 } %1, 1
  store i32 %3, ptr %ehselector.slot, align 4
  call void @_ZN6Assimp6Intern22AllocateFromAssimpHeapdlEPv(ptr noundef %call) #5
  br label %eh.resume

sw.bb2:                                           ; preds = %entry
  %call3 = call noundef ptr @_ZN6Assimp6Intern22AllocateFromAssimpHeapnwEm(i64 noundef 16)
  invoke void @_ZN6Assimp19StdOStreamLogStreamC2ERSo(ptr noundef nonnull align 8 dereferenceable(16) %call3, ptr noundef nonnull align 8 dereferenceable(8) @_ZSt4cout)
          to label %invoke.cont5 unwind label %lpad4

invoke.cont5:                                     ; preds = %sw.bb2
  store ptr %call3, ptr %retval, align 8
  br label %return

lpad4:                                            ; preds = %sw.bb2
  %4 = landingpad { ptr, i32 }
          cleanup
  %5 = extractvalue { ptr, i32 } %4, 0
  store ptr %5, ptr %exn.slot, align 8
  %6 = extractvalue { ptr, i32 } %4, 1
  store i32 %6, ptr %ehselector.slot, align 4
  call void @_ZN6Assimp6Intern22AllocateFromAssimpHeapdlEPv(ptr noundef %call3) #5
  br label %eh.resume

sw.bb6:                                           ; preds = %entry
  %7 = load ptr, ptr %name.addr, align 8
  %tobool = icmp ne ptr %7, null
  store i1 false, ptr %cleanup.cond, align 1
  br i1 %tobool, label %land.lhs.true, label %cond.false

land.lhs.true:                                    ; preds = %sw.bb6
  %8 = load ptr, ptr %name.addr, align 8
  %9 = load i8, ptr %8, align 1
  %tobool7 = icmp ne i8 %9, 0
  br i1 %tobool7, label %cond.true, label %cond.false

cond.true:                                        ; preds = %land.lhs.true
  %call8 = call noundef ptr @_ZN6Assimp6Intern22AllocateFromAssimpHeapnwEm(i64 noundef 16)
  store ptr %call8, ptr %saved-rvalue, align 8
  store i1 true, ptr %cleanup.cond, align 1
  %10 = load ptr, ptr %name.addr, align 8
  %11 = load ptr, ptr %io.addr, align 8
  invoke void @_ZN6Assimp13FileLogStreamC2EPKcPNS_8IOSystemE(ptr noundef nonnull align 8 dereferenceable(16) %call8, ptr noundef %10, ptr noundef %11)
          to label %invoke.cont10 unwind label %lpad9

invoke.cont10:                                    ; preds = %cond.true
  br label %cond.end

cond.false:                                       ; preds = %land.lhs.true, %sw.bb6
  br label %cond.end

cond.end:                                         ; preds = %cond.false, %invoke.cont10
  %cond = phi ptr [ %call8, %invoke.cont10 ], [ null, %cond.false ]
  store ptr %cond, ptr %retval, align 8
  br label %return

lpad9:                                            ; preds = %cond.true
  %12 = landingpad { ptr, i32 }
          cleanup
  %13 = extractvalue { ptr, i32 } %12, 0
  store ptr %13, ptr %exn.slot, align 8
  %14 = extractvalue { ptr, i32 } %12, 1
  store i32 %14, ptr %ehselector.slot, align 4
  %cleanup.is_active = load i1, ptr %cleanup.cond, align 1
  br i1 %cleanup.is_active, label %cleanup.action, label %cleanup.done

cleanup.action:                                   ; preds = %lpad9
  %15 = load ptr, ptr %saved-rvalue, align 8
  call void @_ZN6Assimp6Intern22AllocateFromAssimpHeapdlEPv(ptr noundef %15) #5
  br label %cleanup.done

cleanup.done:                                     ; preds = %cleanup.action, %lpad9
  br label %eh.resume

sw.default:                                       ; preds = %entry
  br label %sw.epilog

sw.epilog:                                        ; preds = %sw.default
  store ptr null, ptr %retval, align 8
  br label %return

return:                                           ; preds = %sw.epilog, %cond.end, %invoke.cont5, %invoke.cont, %sw.bb
  %16 = load ptr, ptr %retval, align 8
  ret ptr %16

eh.resume:                                        ; preds = %cleanup.done, %lpad4, %lpad
  %exn = load ptr, ptr %exn.slot, align 8
  %sel = load i32, ptr %ehselector.slot, align 4
  %lpad.val = insertvalue { ptr, i32 } poison, ptr %exn, 0
  %lpad.val11 = insertvalue { ptr, i32 } %lpad.val, i32 %sel, 1
  resume { ptr, i32 } %lpad.val11
}