; Function Attrs: mustprogress uwtable
define noundef ptr @_ZN6Assimp9LogStream19createDefaultStreamE18aiDefaultLogStreamPKcPNS_8IOSystemE(i32 noundef %streams, ptr noundef %name, ptr noundef %io) local_unnamed_addr #5 align 2 personality ptr @__gxx_personality_v0 {
entry:
  switch i32 %streams, label %return [
    i32 1, label %sw.bb6
    i32 4, label %return.sink.split
    i32 2, label %sw.bb2
  ]

sw.bb2:                                           ; preds = %entry
  br label %return.sink.split

sw.bb6:                                           ; preds = %entry
  %tobool.not = icmp eq ptr %name, null
  br i1 %tobool.not, label %return, label %land.lhs.true

land.lhs.true:                                    ; preds = %sw.bb6
  %0 = load i8, ptr %name, align 1
  %tobool7.not = icmp eq i8 %0, 0
  br i1 %tobool7.not, label %return, label %cond.true

cond.true:                                        ; preds = %land.lhs.true
  %call8 = tail call noundef ptr @_ZN6Assimp6Intern22AllocateFromAssimpHeapnwEm(i64 noundef 16)
  invoke void @_ZN6Assimp13FileLogStreamC2EPKcPNS_8IOSystemE(ptr noundef nonnull align 8 dereferenceable(16) %call8, ptr noundef nonnull %name, ptr noundef %io)
          to label %return unwind label %lpad9

lpad9:                                            ; preds = %cond.true
  %1 = landingpad { ptr, i32 }
          cleanup
  tail call void @_ZN6Assimp6Intern22AllocateFromAssimpHeapdlEPv(ptr noundef %call8) #20
  resume { ptr, i32 } %1

return.sink.split:                                ; preds = %entry, %sw.bb2
  %_ZSt4cout.sink = phi ptr [ @_ZSt4cout, %sw.bb2 ], [ @_ZSt4cerr, %entry ]
  %call = tail call noundef ptr @_ZN6Assimp6Intern22AllocateFromAssimpHeapnwEm(i64 noundef 16)
  store ptr getelementptr inbounds ({ [5 x ptr] }, ptr @_ZTVN6Assimp19StdOStreamLogStreamE, i64 0, i32 0, i64 2), ptr %call, align 8
  %mOstream.i3 = getelementptr inbounds i8, ptr %call, i64 8
  store ptr %_ZSt4cout.sink, ptr %mOstream.i3, align 8
  br label %return

return:                                           ; preds = %return.sink.split, %entry, %cond.true, %land.lhs.true, %sw.bb6
  %retval.0 = phi ptr [ %call8, %cond.true ], [ null, %land.lhs.true ], [ null, %sw.bb6 ], [ null, %entry ], [ %call, %return.sink.split ]
  ret ptr %retval.0
}